target datalayout = "e-m:e-p270:32:32-p271:32:32-p272:64:64-i64:64-i128:128-f80:128-n8:16:32:64-S128"
target triple = "x86_64-pc-linux-gnu"

%struct.ossl_param_st = type { ptr, i32, ptr, i64, i64 }

@.str.2 = private unnamed_addr constant [10 x i8] c"operation\00", align 1
@.str.3 = private unnamed_addr constant [38 x i8] c"../openssl/test/evp_pkey_dhkem_test.c\00", align 1
@rctx = internal global [2 x ptr] zeroinitializer, align 16
@.str.46 = private unnamed_addr constant [5 x i8] c"ikme\00", align 1
@.str.50 = private unnamed_addr constant [2 x i8] c"1\00", align 1
@.str.65 = private unnamed_addr constant [37 x i8] c"EVP_PKEY_encapsulate_init(ctx, NULL)\00", align 1
@.str.66 = private unnamed_addr constant [51 x i8] c"settableparams = EVP_PKEY_CTX_settable_params(ctx)\00", align 1
@.str.67 = private unnamed_addr constant [70 x i8] c"p = OSSL_PARAM_locate_const(settableparams, OSSL_KEM_PARAM_OPERATION)\00", align 1
@.str.68 = private unnamed_addr constant [13 x i8] c"p->data_type\00", align 1
@.str.69 = private unnamed_addr constant [23 x i8] c"OSSL_PARAM_UTF8_STRING\00", align 1
@.str.70 = private unnamed_addr constant [65 x i8] c"p = OSSL_PARAM_locate_const(settableparams, OSSL_KEM_PARAM_IKME)\00", align 1
@.str.71 = private unnamed_addr constant [24 x i8] c"OSSL_PARAM_OCTET_STRING\00", align 1

; Function Attrs: nounwind uwtable
define internal i32 @test_settables(i32 noundef %0) #0 {
  %2 = alloca i32, align 4
  %3 = alloca ptr, align 8
  %4 = alloca ptr, align 8
  %5 = alloca ptr, align 8
  store i32 %0, ptr %2, align 4, !tbaa !10
  call void @llvm.lifetime.start.p0(i64 8, ptr %3) #6
  %6 = load i32, ptr %2, align 4, !tbaa !10
  %7 = sext i32 %6 to i64
  %8 = getelementptr inbounds [2 x ptr], ptr @rctx, i64 0, i64 %7
  %9 = load ptr, ptr %8, align 8, !tbaa !19
  store ptr %9, ptr %3, align 8, !tbaa !19
  call void @llvm.lifetime.start.p0(i64 8, ptr %4) #6
  call void @llvm.lifetime.start.p0(i64 8, ptr %5) #6
  %10 = load ptr, ptr %3, align 8, !tbaa !19
  %11 = call i32 @EVP_PKEY_encapsulate_init(ptr noundef %10, ptr noundef null)
  %12 = call i32 @test_int_eq(ptr noundef @.str.3, i32 noundef 94, ptr noundef @.str.65, ptr noundef @.str.50, i32 noundef %11, i32 noundef 1)
  %13 = icmp ne i32 %12, 0
  br i1 %13, label %14, label %41

14:                                               ; preds = %1
  %15 = load ptr, ptr %3, align 8, !tbaa !19
  %16 = call ptr @EVP_PKEY_CTX_settable_params(ptr noundef %15)
  store ptr %16, ptr %4, align 8, !tbaa !31
  %17 = call i32 @test_ptr(ptr noundef @.str.3, i32 noundef 95, ptr noundef @.str.66, ptr noundef %16)
  %18 = icmp ne i32 %17, 0
  br i1 %18, label %19, label %41

19:                                               ; preds = %14
  %20 = load ptr, ptr %4, align 8, !tbaa !31
  %21 = call ptr @OSSL_PARAM_locate_const(ptr noundef %20, ptr noundef @.str.2)
  store ptr %21, ptr %5, align 8, !tbaa !31
  %22 = call i32 @test_ptr(ptr noundef @.str.3, i32 noundef 97, ptr noundef @.str.67, ptr noundef %21)
  %23 = icmp ne i32 %22, 0
  br i1 %23, label %24, label %41

24:                                               ; preds = %19
  %25 = load ptr, ptr %5, align 8, !tbaa !31
  %26 = getelementptr inbounds nuw %struct.ossl_param_st, ptr %25, i32 0, i32 1
  %27 = load i32, ptr %26, align 8, !tbaa !33
  %28 = call i32 @test_uint_eq(ptr noundef @.str.3, i32 noundef 98, ptr noundef @.str.68, ptr noundef @.str.69, i32 noundef %27, i32 noundef 4)
  %29 = icmp ne i32 %28, 0
  br i1 %29, label %30, label %41

30:                                               ; preds = %24
  %31 = load ptr, ptr %4, align 8, !tbaa !31
  %32 = call ptr @OSSL_PARAM_locate_const(ptr noundef %31, ptr noundef @.str.46)
  store ptr %32, ptr %5, align 8, !tbaa !31
  %33 = call i32 @test_ptr(ptr noundef @.str.3, i32 noundef 100, ptr noundef @.str.70, ptr noundef %32)
  %34 = icmp ne i32 %33, 0
  br i1 %34, label %35, label %41

35:                                               ; preds = %30
  %36 = load ptr, ptr %5, align 8, !tbaa !31
  %37 = getelementptr inbounds nuw %struct.ossl_param_st, ptr %36, i32 0, i32 1
  %38 = load i32, ptr %37, align 8, !tbaa !33
  %39 = call i32 @test_uint_eq(ptr noundef @.str.3, i32 noundef 101, ptr noundef @.str.68, ptr noundef @.str.71, i32 noundef %38, i32 noundef 5)
  %40 = icmp ne i32 %39, 0
  br label %41

41:                                               ; preds = %35, %30, %24, %19, %14, %1
  %42 = phi i1 [ false, %30 ], [ false, %24 ], [ false, %19 ], [ false, %14 ], [ false, %1 ], [ %40, %35 ]
  %43 = zext i1 %42 to i32
  call void @llvm.lifetime.end.p0(i64 8, ptr %5) #6
  call void @llvm.lifetime.end.p0(i64 8, ptr %4) #6
  call void @llvm.lifetime.end.p0(i64 8, ptr %3) #6
  ret i32 %43
}