; Function Attrs: nounwind uwtable
define internal range(i32 0, 2) i32 @test_settables(i32 noundef %0) #0 {
  %2 = sext i32 %0 to i64
  %3 = getelementptr inbounds [2 x ptr], ptr @rctx, i64 0, i64 %2
  %4 = load ptr, ptr %3, align 8, !tbaa !19
  %5 = tail call i32 @EVP_PKEY_encapsulate_init(ptr noundef %4, ptr noundef null) #5
  %6 = tail call i32 @test_int_eq(ptr noundef nonnull @.str.3, i32 noundef 94, ptr noundef nonnull @.str.65, ptr noundef nonnull @.str.50, i32 noundef %5, i32 noundef 1) #5
  %.not = icmp eq i32 %6, 0
  br i1 %.not, label %26, label %7

7:                                                ; preds = %1
  %8 = tail call ptr @EVP_PKEY_CTX_settable_params(ptr noundef %4) #5
  %9 = tail call i32 @test_ptr(ptr noundef nonnull @.str.3, i32 noundef 95, ptr noundef nonnull @.str.66, ptr noundef %8) #5
  %.not6 = icmp eq i32 %9, 0
  br i1 %.not6, label %26, label %10

10:                                               ; preds = %7
  %11 = tail call ptr @OSSL_PARAM_locate_const(ptr noundef %8, ptr noundef nonnull @.str.2) #5
  %12 = tail call i32 @test_ptr(ptr noundef nonnull @.str.3, i32 noundef 97, ptr noundef nonnull @.str.67, ptr noundef %11) #5
  %.not7 = icmp eq i32 %12, 0
  br i1 %.not7, label %26, label %13

13:                                               ; preds = %10
  %14 = getelementptr inbounds nuw i8, ptr %11, i64 8
  %15 = load i32, ptr %14, align 8, !tbaa !37
  %16 = tail call i32 @test_uint_eq(ptr noundef nonnull @.str.3, i32 noundef 98, ptr noundef nonnull @.str.68, ptr noundef nonnull @.str.69, i32 noundef %15, i32 noundef 4) #5
  %.not8 = icmp eq i32 %16, 0
  br i1 %.not8, label %26, label %17

17:                                               ; preds = %13
  %18 = tail call ptr @OSSL_PARAM_locate_const(ptr noundef %8, ptr noundef nonnull @.str.46) #5
  %19 = tail call i32 @test_ptr(ptr noundef nonnull @.str.3, i32 noundef 100, ptr noundef nonnull @.str.70, ptr noundef %18) #5
  %.not9 = icmp eq i32 %19, 0
  br i1 %.not9, label %26, label %20

20:                                               ; preds = %17
  %21 = getelementptr inbounds nuw i8, ptr %18, i64 8
  %22 = load i32, ptr %21, align 8, !tbaa !37
  %23 = tail call i32 @test_uint_eq(ptr noundef nonnull @.str.3, i32 noundef 101, ptr noundef nonnull @.str.68, ptr noundef nonnull @.str.71, i32 noundef %22, i32 noundef 5) #5
  %24 = icmp ne i32 %23, 0
  %25 = zext i1 %24 to i32
  br label %26

26:                                               ; preds = %20, %17, %13, %10, %7, %1
  %27 = phi i32 [ 0, %17 ], [ 0, %13 ], [ 0, %10 ], [ 0, %7 ], [ 0, %1 ], [ %25, %20 ]
  ret i32 %27
}